(lp0
S'dfg'
p1
aS'sdfgsdfg'
p2
aS'abogga@alarm.com'
p3
aS'ajsdf'
p4
aS'sdf'
p5
aS'asd@alarm.com'
p6
aS'wtwert@alarm.com'
p7
aS'pithre@alarm.com'
p8
aS'pithre@objectvideo.com'
p9
aS'pithre@alarm.com'
p10
aS'asdfasdf@alarm.com'
p11
aS'asdf@alarm.com'
p12
aS'pith@alarm.com'
p13
aS'mike@alarm.com'
p14
aS'conan@alarm.com'
p15
aS'gang@alarm.com'
p16
aS'mike@objectvideo.com'
p17
aS'albittar@alarm.com'
p18
a.